
LCD1602_I2C_PCF8574_2560_C.elf:     file format elf32-avr

Sections:
Idx Name          Size      VMA       LMA       File off  Algn
  0 .data         0000003a  00800200  00000652  000006e6  2**0
                  CONTENTS, ALLOC, LOAD, DATA
  1 .text         00000652  00000000  00000000  00000094  2**1
                  CONTENTS, ALLOC, LOAD, READONLY, CODE
  2 .bss          00000009  0080023a  0080023a  00000720  2**0
                  ALLOC
  3 .comment      00000030  00000000  00000000  00000720  2**0
                  CONTENTS, READONLY
  4 .note.gnu.avr.deviceinfo 00000040  00000000  00000000  00000750  2**2
                  CONTENTS, READONLY
  5 .debug_aranges 000001b0  00000000  00000000  00000790  2**0
                  CONTENTS, READONLY, DEBUGGING
  6 .debug_info   00001506  00000000  00000000  00000940  2**0
                  CONTENTS, READONLY, DEBUGGING
  7 .debug_abbrev 000008ca  00000000  00000000  00001e46  2**0
                  CONTENTS, READONLY, DEBUGGING
  8 .debug_line   00000de6  00000000  00000000  00002710  2**0
                  CONTENTS, READONLY, DEBUGGING
  9 .debug_frame  00000384  00000000  00000000  000034f8  2**2
                  CONTENTS, READONLY, DEBUGGING
 10 .debug_str    000005ac  00000000  00000000  0000387c  2**0
                  CONTENTS, READONLY, DEBUGGING
 11 .debug_loc    00000f70  00000000  00000000  00003e28  2**0
                  CONTENTS, READONLY, DEBUGGING
 12 .debug_ranges 00000178  00000000  00000000  00004d98  2**0
                  CONTENTS, READONLY, DEBUGGING

Disassembly of section .text:

00000000 <__vectors>:
   0:	71 c0       	rjmp	.+226    	; 0xe4 <__ctors_end>
   2:	00 00       	nop
   4:	8e c0       	rjmp	.+284    	; 0x122 <__bad_interrupt>
   6:	00 00       	nop
   8:	8c c0       	rjmp	.+280    	; 0x122 <__bad_interrupt>
   a:	00 00       	nop
   c:	8a c0       	rjmp	.+276    	; 0x122 <__bad_interrupt>
   e:	00 00       	nop
  10:	88 c0       	rjmp	.+272    	; 0x122 <__bad_interrupt>
  12:	00 00       	nop
  14:	86 c0       	rjmp	.+268    	; 0x122 <__bad_interrupt>
  16:	00 00       	nop
  18:	84 c0       	rjmp	.+264    	; 0x122 <__bad_interrupt>
  1a:	00 00       	nop
  1c:	82 c0       	rjmp	.+260    	; 0x122 <__bad_interrupt>
  1e:	00 00       	nop
  20:	80 c0       	rjmp	.+256    	; 0x122 <__bad_interrupt>
  22:	00 00       	nop
  24:	7e c0       	rjmp	.+252    	; 0x122 <__bad_interrupt>
  26:	00 00       	nop
  28:	7c c0       	rjmp	.+248    	; 0x122 <__bad_interrupt>
  2a:	00 00       	nop
  2c:	7a c0       	rjmp	.+244    	; 0x122 <__bad_interrupt>
  2e:	00 00       	nop
  30:	78 c0       	rjmp	.+240    	; 0x122 <__bad_interrupt>
  32:	00 00       	nop
  34:	76 c0       	rjmp	.+236    	; 0x122 <__bad_interrupt>
  36:	00 00       	nop
  38:	74 c0       	rjmp	.+232    	; 0x122 <__bad_interrupt>
  3a:	00 00       	nop
  3c:	72 c0       	rjmp	.+228    	; 0x122 <__bad_interrupt>
  3e:	00 00       	nop
  40:	70 c0       	rjmp	.+224    	; 0x122 <__bad_interrupt>
  42:	00 00       	nop
  44:	6e c0       	rjmp	.+220    	; 0x122 <__bad_interrupt>
  46:	00 00       	nop
  48:	6c c0       	rjmp	.+216    	; 0x122 <__bad_interrupt>
  4a:	00 00       	nop
  4c:	6a c0       	rjmp	.+212    	; 0x122 <__bad_interrupt>
  4e:	00 00       	nop
  50:	68 c0       	rjmp	.+208    	; 0x122 <__bad_interrupt>
  52:	00 00       	nop
  54:	66 c0       	rjmp	.+204    	; 0x122 <__bad_interrupt>
  56:	00 00       	nop
  58:	64 c0       	rjmp	.+200    	; 0x122 <__bad_interrupt>
  5a:	00 00       	nop
  5c:	62 c0       	rjmp	.+196    	; 0x122 <__bad_interrupt>
  5e:	00 00       	nop
  60:	60 c0       	rjmp	.+192    	; 0x122 <__bad_interrupt>
  62:	00 00       	nop
  64:	d1 c2       	rjmp	.+1442   	; 0x608 <__vector_25>
  66:	00 00       	nop
  68:	5c c0       	rjmp	.+184    	; 0x122 <__bad_interrupt>
  6a:	00 00       	nop
  6c:	5a c0       	rjmp	.+180    	; 0x122 <__bad_interrupt>
  6e:	00 00       	nop
  70:	58 c0       	rjmp	.+176    	; 0x122 <__bad_interrupt>
  72:	00 00       	nop
  74:	56 c0       	rjmp	.+172    	; 0x122 <__bad_interrupt>
  76:	00 00       	nop
  78:	54 c0       	rjmp	.+168    	; 0x122 <__bad_interrupt>
  7a:	00 00       	nop
  7c:	52 c0       	rjmp	.+164    	; 0x122 <__bad_interrupt>
  7e:	00 00       	nop
  80:	50 c0       	rjmp	.+160    	; 0x122 <__bad_interrupt>
  82:	00 00       	nop
  84:	4e c0       	rjmp	.+156    	; 0x122 <__bad_interrupt>
  86:	00 00       	nop
  88:	4c c0       	rjmp	.+152    	; 0x122 <__bad_interrupt>
  8a:	00 00       	nop
  8c:	4a c0       	rjmp	.+148    	; 0x122 <__bad_interrupt>
  8e:	00 00       	nop
  90:	48 c0       	rjmp	.+144    	; 0x122 <__bad_interrupt>
  92:	00 00       	nop
  94:	46 c0       	rjmp	.+140    	; 0x122 <__bad_interrupt>
  96:	00 00       	nop
  98:	44 c0       	rjmp	.+136    	; 0x122 <__bad_interrupt>
  9a:	00 00       	nop
  9c:	42 c0       	rjmp	.+132    	; 0x122 <__bad_interrupt>
  9e:	00 00       	nop
  a0:	40 c0       	rjmp	.+128    	; 0x122 <__bad_interrupt>
  a2:	00 00       	nop
  a4:	3e c0       	rjmp	.+124    	; 0x122 <__bad_interrupt>
  a6:	00 00       	nop
  a8:	3c c0       	rjmp	.+120    	; 0x122 <__bad_interrupt>
  aa:	00 00       	nop
  ac:	3a c0       	rjmp	.+116    	; 0x122 <__bad_interrupt>
  ae:	00 00       	nop
  b0:	38 c0       	rjmp	.+112    	; 0x122 <__bad_interrupt>
  b2:	00 00       	nop
  b4:	36 c0       	rjmp	.+108    	; 0x122 <__bad_interrupt>
  b6:	00 00       	nop
  b8:	34 c0       	rjmp	.+104    	; 0x122 <__bad_interrupt>
  ba:	00 00       	nop
  bc:	32 c0       	rjmp	.+100    	; 0x122 <__bad_interrupt>
  be:	00 00       	nop
  c0:	30 c0       	rjmp	.+96     	; 0x122 <__bad_interrupt>
  c2:	00 00       	nop
  c4:	2e c0       	rjmp	.+92     	; 0x122 <__bad_interrupt>
  c6:	00 00       	nop
  c8:	2c c0       	rjmp	.+88     	; 0x122 <__bad_interrupt>
  ca:	00 00       	nop
  cc:	2a c0       	rjmp	.+84     	; 0x122 <__bad_interrupt>
  ce:	00 00       	nop
  d0:	28 c0       	rjmp	.+80     	; 0x122 <__bad_interrupt>
  d2:	00 00       	nop
  d4:	26 c0       	rjmp	.+76     	; 0x122 <__bad_interrupt>
  d6:	00 00       	nop
  d8:	24 c0       	rjmp	.+72     	; 0x122 <__bad_interrupt>
  da:	00 00       	nop
  dc:	22 c0       	rjmp	.+68     	; 0x122 <__bad_interrupt>
  de:	00 00       	nop
  e0:	20 c0       	rjmp	.+64     	; 0x122 <__bad_interrupt>
	...

000000e4 <__ctors_end>:
  e4:	11 24       	eor	r1, r1
  e6:	1f be       	out	0x3f, r1	; 63
  e8:	cf ef       	ldi	r28, 0xFF	; 255
  ea:	d1 e2       	ldi	r29, 0x21	; 33
  ec:	de bf       	out	0x3e, r29	; 62
  ee:	cd bf       	out	0x3d, r28	; 61
  f0:	00 e0       	ldi	r16, 0x00	; 0
  f2:	0c bf       	out	0x3c, r16	; 60

000000f4 <__do_copy_data>:
  f4:	12 e0       	ldi	r17, 0x02	; 2
  f6:	a0 e0       	ldi	r26, 0x00	; 0
  f8:	b2 e0       	ldi	r27, 0x02	; 2
  fa:	e2 e5       	ldi	r30, 0x52	; 82
  fc:	f6 e0       	ldi	r31, 0x06	; 6
  fe:	00 e0       	ldi	r16, 0x00	; 0
 100:	0b bf       	out	0x3b, r16	; 59
 102:	02 c0       	rjmp	.+4      	; 0x108 <__do_copy_data+0x14>
 104:	07 90       	elpm	r0, Z+
 106:	0d 92       	st	X+, r0
 108:	aa 33       	cpi	r26, 0x3A	; 58
 10a:	b1 07       	cpc	r27, r17
 10c:	d9 f7       	brne	.-10     	; 0x104 <__do_copy_data+0x10>

0000010e <__do_clear_bss>:
 10e:	22 e0       	ldi	r18, 0x02	; 2
 110:	aa e3       	ldi	r26, 0x3A	; 58
 112:	b2 e0       	ldi	r27, 0x02	; 2
 114:	01 c0       	rjmp	.+2      	; 0x118 <.do_clear_bss_start>

00000116 <.do_clear_bss_loop>:
 116:	1d 92       	st	X+, r1

00000118 <.do_clear_bss_start>:
 118:	a3 34       	cpi	r26, 0x43	; 67
 11a:	b2 07       	cpc	r27, r18
 11c:	e1 f7       	brne	.-8      	; 0x116 <.do_clear_bss_loop>
 11e:	7e d2       	rcall	.+1276   	; 0x61c <main>
 120:	96 c2       	rjmp	.+1324   	; 0x64e <_exit>

00000122 <__bad_interrupt>:
 122:	6e cf       	rjmp	.-292    	; 0x0 <__vectors>

00000124 <lcd_read>:
 124:	cf 93       	push	r28
 126:	88 23       	and	r24, r24
 128:	31 f0       	breq	.+12     	; 0x136 <lcd_read+0x12>
 12a:	80 91 3a 02 	lds	r24, 0x023A	; 0x80023a <__data_end>
 12e:	81 60       	ori	r24, 0x01	; 1
 130:	80 93 3a 02 	sts	0x023A, r24	; 0x80023a <__data_end>
 134:	05 c0       	rjmp	.+10     	; 0x140 <lcd_read+0x1c>
 136:	80 91 3a 02 	lds	r24, 0x023A	; 0x80023a <__data_end>
 13a:	8e 7f       	andi	r24, 0xFE	; 254
 13c:	80 93 3a 02 	sts	0x023A, r24	; 0x80023a <__data_end>
 140:	80 91 3a 02 	lds	r24, 0x023A	; 0x80023a <__data_end>
 144:	82 60       	ori	r24, 0x02	; 2
 146:	80 93 3a 02 	sts	0x023A, r24	; 0x80023a <__data_end>
 14a:	60 91 3a 02 	lds	r22, 0x023A	; 0x80023a <__data_end>
 14e:	87 e0       	ldi	r24, 0x07	; 7
 150:	8d d1       	rcall	.+794    	; 0x46c <pcf8574_setoutput>
 152:	62 e0       	ldi	r22, 0x02	; 2
 154:	87 e0       	ldi	r24, 0x07	; 7
 156:	d4 d1       	rcall	.+936    	; 0x500 <pcf8574_setoutputpinhigh>
 158:	00 c0       	rjmp	.+0      	; 0x15a <lcd_read+0x36>
 15a:	64 e0       	ldi	r22, 0x04	; 4
 15c:	87 e0       	ldi	r24, 0x07	; 7
 15e:	6f d1       	rcall	.+734    	; 0x43e <pcf8574_getoutputpin>
 160:	c8 2f       	mov	r28, r24
 162:	62 e0       	ldi	r22, 0x02	; 2
 164:	87 e0       	ldi	r24, 0x07	; 7
 166:	cf d1       	rcall	.+926    	; 0x506 <pcf8574_setoutputpinlow>
 168:	00 c0       	rjmp	.+0      	; 0x16a <lcd_read+0x46>
 16a:	62 e0       	ldi	r22, 0x02	; 2
 16c:	87 e0       	ldi	r24, 0x07	; 7
 16e:	c8 d1       	rcall	.+912    	; 0x500 <pcf8574_setoutputpinhigh>
 170:	00 c0       	rjmp	.+0      	; 0x172 <lcd_read+0x4e>
 172:	64 e0       	ldi	r22, 0x04	; 4
 174:	87 e0       	ldi	r24, 0x07	; 7
 176:	63 d1       	rcall	.+710    	; 0x43e <pcf8574_getoutputpin>
 178:	c2 95       	swap	r28
 17a:	c0 7f       	andi	r28, 0xF0	; 240
 17c:	8f 70       	andi	r24, 0x0F	; 15
 17e:	c8 2b       	or	r28, r24
 180:	62 e0       	ldi	r22, 0x02	; 2
 182:	87 e0       	ldi	r24, 0x07	; 7
 184:	c0 d1       	rcall	.+896    	; 0x506 <pcf8574_setoutputpinlow>
 186:	8c 2f       	mov	r24, r28
 188:	cf 91       	pop	r28
 18a:	08 95       	ret

0000018c <lcd_waitbusy>:
 18c:	80 e0       	ldi	r24, 0x00	; 0
 18e:	ca df       	rcall	.-108    	; 0x124 <lcd_read>
 190:	88 23       	and	r24, r24
 192:	e4 f3       	brlt	.-8      	; 0x18c <lcd_waitbusy>
 194:	88 e0       	ldi	r24, 0x08	; 8
 196:	90 e0       	ldi	r25, 0x00	; 0
 198:	01 97       	sbiw	r24, 0x01	; 1
 19a:	f1 f7       	brne	.-4      	; 0x198 <lcd_waitbusy+0xc>
 19c:	80 e0       	ldi	r24, 0x00	; 0
 19e:	c2 cf       	rjmp	.-124    	; 0x124 <lcd_read>
 1a0:	08 95       	ret

000001a2 <toggle_e>:
 1a2:	62 e0       	ldi	r22, 0x02	; 2
 1a4:	87 e0       	ldi	r24, 0x07	; 7
 1a6:	ac d1       	rcall	.+856    	; 0x500 <pcf8574_setoutputpinhigh>
 1a8:	00 c0       	rjmp	.+0      	; 0x1aa <toggle_e+0x8>
 1aa:	62 e0       	ldi	r22, 0x02	; 2
 1ac:	87 e0       	ldi	r24, 0x07	; 7
 1ae:	ab c1       	rjmp	.+854    	; 0x506 <pcf8574_setoutputpinlow>
 1b0:	08 95       	ret

000001b2 <lcd_write>:
 1b2:	cf 93       	push	r28
 1b4:	c8 2f       	mov	r28, r24
 1b6:	66 23       	and	r22, r22
 1b8:	31 f0       	breq	.+12     	; 0x1c6 <lcd_write+0x14>
 1ba:	80 91 3a 02 	lds	r24, 0x023A	; 0x80023a <__data_end>
 1be:	81 60       	ori	r24, 0x01	; 1
 1c0:	80 93 3a 02 	sts	0x023A, r24	; 0x80023a <__data_end>
 1c4:	05 c0       	rjmp	.+10     	; 0x1d0 <lcd_write+0x1e>
 1c6:	80 91 3a 02 	lds	r24, 0x023A	; 0x80023a <__data_end>
 1ca:	8e 7f       	andi	r24, 0xFE	; 254
 1cc:	80 93 3a 02 	sts	0x023A, r24	; 0x80023a <__data_end>
 1d0:	80 91 3a 02 	lds	r24, 0x023A	; 0x80023a <__data_end>
 1d4:	8d 7f       	andi	r24, 0xFD	; 253
 1d6:	80 93 3a 02 	sts	0x023A, r24	; 0x80023a <__data_end>
 1da:	60 91 3a 02 	lds	r22, 0x023A	; 0x80023a <__data_end>
 1de:	87 e0       	ldi	r24, 0x07	; 7
 1e0:	45 d1       	rcall	.+650    	; 0x46c <pcf8574_setoutput>
 1e2:	80 91 3a 02 	lds	r24, 0x023A	; 0x80023a <__data_end>
 1e6:	8f 77       	andi	r24, 0x7F	; 127
 1e8:	80 93 3a 02 	sts	0x023A, r24	; 0x80023a <__data_end>
 1ec:	80 91 3a 02 	lds	r24, 0x023A	; 0x80023a <__data_end>
 1f0:	8f 7b       	andi	r24, 0xBF	; 191
 1f2:	80 93 3a 02 	sts	0x023A, r24	; 0x80023a <__data_end>
 1f6:	80 91 3a 02 	lds	r24, 0x023A	; 0x80023a <__data_end>
 1fa:	8f 7d       	andi	r24, 0xDF	; 223
 1fc:	80 93 3a 02 	sts	0x023A, r24	; 0x80023a <__data_end>
 200:	80 91 3a 02 	lds	r24, 0x023A	; 0x80023a <__data_end>
 204:	8f 7e       	andi	r24, 0xEF	; 239
 206:	80 93 3a 02 	sts	0x023A, r24	; 0x80023a <__data_end>
 20a:	cc 23       	and	r28, r28
 20c:	2c f4       	brge	.+10     	; 0x218 <lcd_write+0x66>
 20e:	80 91 3a 02 	lds	r24, 0x023A	; 0x80023a <__data_end>
 212:	80 68       	ori	r24, 0x80	; 128
 214:	80 93 3a 02 	sts	0x023A, r24	; 0x80023a <__data_end>
 218:	c6 ff       	sbrs	r28, 6
 21a:	05 c0       	rjmp	.+10     	; 0x226 <lcd_write+0x74>
 21c:	80 91 3a 02 	lds	r24, 0x023A	; 0x80023a <__data_end>
 220:	80 64       	ori	r24, 0x40	; 64
 222:	80 93 3a 02 	sts	0x023A, r24	; 0x80023a <__data_end>
 226:	c5 ff       	sbrs	r28, 5
 228:	05 c0       	rjmp	.+10     	; 0x234 <lcd_write+0x82>
 22a:	80 91 3a 02 	lds	r24, 0x023A	; 0x80023a <__data_end>
 22e:	80 62       	ori	r24, 0x20	; 32
 230:	80 93 3a 02 	sts	0x023A, r24	; 0x80023a <__data_end>
 234:	c4 ff       	sbrs	r28, 4
 236:	05 c0       	rjmp	.+10     	; 0x242 <lcd_write+0x90>
 238:	80 91 3a 02 	lds	r24, 0x023A	; 0x80023a <__data_end>
 23c:	80 61       	ori	r24, 0x10	; 16
 23e:	80 93 3a 02 	sts	0x023A, r24	; 0x80023a <__data_end>
 242:	60 91 3a 02 	lds	r22, 0x023A	; 0x80023a <__data_end>
 246:	87 e0       	ldi	r24, 0x07	; 7
 248:	11 d1       	rcall	.+546    	; 0x46c <pcf8574_setoutput>
 24a:	ab df       	rcall	.-170    	; 0x1a2 <toggle_e>
 24c:	80 91 3a 02 	lds	r24, 0x023A	; 0x80023a <__data_end>
 250:	8f 77       	andi	r24, 0x7F	; 127
 252:	80 93 3a 02 	sts	0x023A, r24	; 0x80023a <__data_end>
 256:	80 91 3a 02 	lds	r24, 0x023A	; 0x80023a <__data_end>
 25a:	8f 7b       	andi	r24, 0xBF	; 191
 25c:	80 93 3a 02 	sts	0x023A, r24	; 0x80023a <__data_end>
 260:	80 91 3a 02 	lds	r24, 0x023A	; 0x80023a <__data_end>
 264:	8f 7d       	andi	r24, 0xDF	; 223
 266:	80 93 3a 02 	sts	0x023A, r24	; 0x80023a <__data_end>
 26a:	80 91 3a 02 	lds	r24, 0x023A	; 0x80023a <__data_end>
 26e:	8f 7e       	andi	r24, 0xEF	; 239
 270:	80 93 3a 02 	sts	0x023A, r24	; 0x80023a <__data_end>
 274:	c3 ff       	sbrs	r28, 3
 276:	05 c0       	rjmp	.+10     	; 0x282 <lcd_write+0xd0>
 278:	80 91 3a 02 	lds	r24, 0x023A	; 0x80023a <__data_end>
 27c:	80 68       	ori	r24, 0x80	; 128
 27e:	80 93 3a 02 	sts	0x023A, r24	; 0x80023a <__data_end>
 282:	c2 ff       	sbrs	r28, 2
 284:	05 c0       	rjmp	.+10     	; 0x290 <lcd_write+0xde>
 286:	80 91 3a 02 	lds	r24, 0x023A	; 0x80023a <__data_end>
 28a:	80 64       	ori	r24, 0x40	; 64
 28c:	80 93 3a 02 	sts	0x023A, r24	; 0x80023a <__data_end>
 290:	c1 ff       	sbrs	r28, 1
 292:	05 c0       	rjmp	.+10     	; 0x29e <lcd_write+0xec>
 294:	80 91 3a 02 	lds	r24, 0x023A	; 0x80023a <__data_end>
 298:	80 62       	ori	r24, 0x20	; 32
 29a:	80 93 3a 02 	sts	0x023A, r24	; 0x80023a <__data_end>
 29e:	c0 ff       	sbrs	r28, 0
 2a0:	05 c0       	rjmp	.+10     	; 0x2ac <lcd_write+0xfa>
 2a2:	80 91 3a 02 	lds	r24, 0x023A	; 0x80023a <__data_end>
 2a6:	80 61       	ori	r24, 0x10	; 16
 2a8:	80 93 3a 02 	sts	0x023A, r24	; 0x80023a <__data_end>
 2ac:	60 91 3a 02 	lds	r22, 0x023A	; 0x80023a <__data_end>
 2b0:	87 e0       	ldi	r24, 0x07	; 7
 2b2:	dc d0       	rcall	.+440    	; 0x46c <pcf8574_setoutput>
 2b4:	76 df       	rcall	.-276    	; 0x1a2 <toggle_e>
 2b6:	80 91 3a 02 	lds	r24, 0x023A	; 0x80023a <__data_end>
 2ba:	80 61       	ori	r24, 0x10	; 16
 2bc:	80 93 3a 02 	sts	0x023A, r24	; 0x80023a <__data_end>
 2c0:	80 91 3a 02 	lds	r24, 0x023A	; 0x80023a <__data_end>
 2c4:	80 62       	ori	r24, 0x20	; 32
 2c6:	80 93 3a 02 	sts	0x023A, r24	; 0x80023a <__data_end>
 2ca:	80 91 3a 02 	lds	r24, 0x023A	; 0x80023a <__data_end>
 2ce:	80 64       	ori	r24, 0x40	; 64
 2d0:	80 93 3a 02 	sts	0x023A, r24	; 0x80023a <__data_end>
 2d4:	80 91 3a 02 	lds	r24, 0x023A	; 0x80023a <__data_end>
 2d8:	80 68       	ori	r24, 0x80	; 128
 2da:	80 93 3a 02 	sts	0x023A, r24	; 0x80023a <__data_end>
 2de:	60 91 3a 02 	lds	r22, 0x023A	; 0x80023a <__data_end>
 2e2:	87 e0       	ldi	r24, 0x07	; 7
 2e4:	c3 d0       	rcall	.+390    	; 0x46c <pcf8574_setoutput>
 2e6:	cf 91       	pop	r28
 2e8:	08 95       	ret

000002ea <lcd_command>:
 2ea:	cf 93       	push	r28
 2ec:	c8 2f       	mov	r28, r24
 2ee:	4e df       	rcall	.-356    	; 0x18c <lcd_waitbusy>
 2f0:	60 e0       	ldi	r22, 0x00	; 0
 2f2:	8c 2f       	mov	r24, r28
 2f4:	5e df       	rcall	.-324    	; 0x1b2 <lcd_write>
 2f6:	cf 91       	pop	r28
 2f8:	08 95       	ret

000002fa <lcd_gotoxy>:
 2fa:	61 11       	cpse	r22, r1
 2fc:	03 c0       	rjmp	.+6      	; 0x304 <lcd_gotoxy+0xa>
 2fe:	80 58       	subi	r24, 0x80	; 128
 300:	f4 cf       	rjmp	.-24     	; 0x2ea <lcd_command>
 302:	08 95       	ret
 304:	80 54       	subi	r24, 0x40	; 64
 306:	f1 cf       	rjmp	.-30     	; 0x2ea <lcd_command>
 308:	08 95       	ret

0000030a <lcd_clrscr>:
 30a:	81 e0       	ldi	r24, 0x01	; 1
 30c:	ee cf       	rjmp	.-36     	; 0x2ea <lcd_command>
 30e:	08 95       	ret

00000310 <lcd_led>:
 310:	88 23       	and	r24, r24
 312:	31 f0       	breq	.+12     	; 0x320 <lcd_led+0x10>
 314:	80 91 3a 02 	lds	r24, 0x023A	; 0x80023a <__data_end>
 318:	87 7f       	andi	r24, 0xF7	; 247
 31a:	80 93 3a 02 	sts	0x023A, r24	; 0x80023a <__data_end>
 31e:	05 c0       	rjmp	.+10     	; 0x32a <lcd_led+0x1a>
 320:	80 91 3a 02 	lds	r24, 0x023A	; 0x80023a <__data_end>
 324:	88 60       	ori	r24, 0x08	; 8
 326:	80 93 3a 02 	sts	0x023A, r24	; 0x80023a <__data_end>
 32a:	60 91 3a 02 	lds	r22, 0x023A	; 0x80023a <__data_end>
 32e:	87 e0       	ldi	r24, 0x07	; 7
 330:	9d c0       	rjmp	.+314    	; 0x46c <pcf8574_setoutput>
 332:	08 95       	ret

00000334 <lcd_home>:
 334:	82 e0       	ldi	r24, 0x02	; 2
 336:	d9 cf       	rjmp	.-78     	; 0x2ea <lcd_command>
 338:	08 95       	ret

0000033a <lcd_putc>:
 33a:	cf 93       	push	r28
 33c:	c8 2f       	mov	r28, r24
 33e:	26 df       	rcall	.-436    	; 0x18c <lcd_waitbusy>
 340:	ca 30       	cpi	r28, 0x0A	; 10
 342:	41 f4       	brne	.+16     	; 0x354 <lcd_putc+0x1a>
 344:	80 34       	cpi	r24, 0x40	; 64
 346:	10 f0       	brcs	.+4      	; 0x34c <lcd_putc+0x12>
 348:	80 e0       	ldi	r24, 0x00	; 0
 34a:	01 c0       	rjmp	.+2      	; 0x34e <lcd_putc+0x14>
 34c:	80 e4       	ldi	r24, 0x40	; 64
 34e:	80 58       	subi	r24, 0x80	; 128
 350:	cc df       	rcall	.-104    	; 0x2ea <lcd_command>
 352:	0f c0       	rjmp	.+30     	; 0x372 <lcd_putc+0x38>
 354:	80 31       	cpi	r24, 0x10	; 16
 356:	21 f4       	brne	.+8      	; 0x360 <lcd_putc+0x26>
 358:	60 e0       	ldi	r22, 0x00	; 0
 35a:	80 ec       	ldi	r24, 0xC0	; 192
 35c:	2a df       	rcall	.-428    	; 0x1b2 <lcd_write>
 35e:	05 c0       	rjmp	.+10     	; 0x36a <lcd_putc+0x30>
 360:	80 35       	cpi	r24, 0x50	; 80
 362:	19 f4       	brne	.+6      	; 0x36a <lcd_putc+0x30>
 364:	60 e0       	ldi	r22, 0x00	; 0
 366:	80 e8       	ldi	r24, 0x80	; 128
 368:	24 df       	rcall	.-440    	; 0x1b2 <lcd_write>
 36a:	10 df       	rcall	.-480    	; 0x18c <lcd_waitbusy>
 36c:	61 e0       	ldi	r22, 0x01	; 1
 36e:	8c 2f       	mov	r24, r28
 370:	20 df       	rcall	.-448    	; 0x1b2 <lcd_write>
 372:	cf 91       	pop	r28
 374:	08 95       	ret

00000376 <lcd_puts>:
 376:	cf 93       	push	r28
 378:	df 93       	push	r29
 37a:	ec 01       	movw	r28, r24
 37c:	21 96       	adiw	r28, 0x01	; 1
 37e:	fc 01       	movw	r30, r24
 380:	80 81       	ld	r24, Z
 382:	88 23       	and	r24, r24
 384:	21 f0       	breq	.+8      	; 0x38e <lcd_puts+0x18>
 386:	d9 df       	rcall	.-78     	; 0x33a <lcd_putc>
 388:	89 91       	ld	r24, Y+
 38a:	81 11       	cpse	r24, r1
 38c:	fc cf       	rjmp	.-8      	; 0x386 <lcd_puts+0x10>
 38e:	df 91       	pop	r29
 390:	cf 91       	pop	r28
 392:	08 95       	ret

00000394 <lcd_init>:
 394:	1f 93       	push	r17
 396:	cf 93       	push	r28
 398:	df 93       	push	r29
 39a:	18 2f       	mov	r17, r24
 39c:	40 d0       	rcall	.+128    	; 0x41e <pcf8574_init>
 39e:	10 92 3a 02 	sts	0x023A, r1	; 0x80023a <__data_end>
 3a2:	60 91 3a 02 	lds	r22, 0x023A	; 0x80023a <__data_end>
 3a6:	87 e0       	ldi	r24, 0x07	; 7
 3a8:	61 d0       	rcall	.+194    	; 0x46c <pcf8574_setoutput>
 3aa:	80 e0       	ldi	r24, 0x00	; 0
 3ac:	9a ef       	ldi	r25, 0xFA	; 250
 3ae:	01 97       	sbiw	r24, 0x01	; 1
 3b0:	f1 f7       	brne	.-4      	; 0x3ae <lcd_init+0x1a>
 3b2:	90 91 3a 02 	lds	r25, 0x023A	; 0x80023a <__data_end>
 3b6:	90 62       	ori	r25, 0x20	; 32
 3b8:	90 93 3a 02 	sts	0x023A, r25	; 0x80023a <__data_end>
 3bc:	90 91 3a 02 	lds	r25, 0x023A	; 0x80023a <__data_end>
 3c0:	90 61       	ori	r25, 0x10	; 16
 3c2:	90 93 3a 02 	sts	0x023A, r25	; 0x80023a <__data_end>
 3c6:	60 91 3a 02 	lds	r22, 0x023A	; 0x80023a <__data_end>
 3ca:	87 e0       	ldi	r24, 0x07	; 7
 3cc:	4f d0       	rcall	.+158    	; 0x46c <pcf8574_setoutput>
 3ce:	e9 de       	rcall	.-558    	; 0x1a2 <toggle_e>
 3d0:	e0 e0       	ldi	r30, 0x00	; 0
 3d2:	fe e4       	ldi	r31, 0x4E	; 78
 3d4:	31 97       	sbiw	r30, 0x01	; 1
 3d6:	f1 f7       	brne	.-4      	; 0x3d4 <lcd_init+0x40>
 3d8:	e4 de       	rcall	.-568    	; 0x1a2 <toggle_e>
 3da:	c0 e0       	ldi	r28, 0x00	; 0
 3dc:	d1 e0       	ldi	r29, 0x01	; 1
 3de:	fe 01       	movw	r30, r28
 3e0:	31 97       	sbiw	r30, 0x01	; 1
 3e2:	f1 f7       	brne	.-4      	; 0x3e0 <lcd_init+0x4c>
 3e4:	de de       	rcall	.-580    	; 0x1a2 <toggle_e>
 3e6:	fe 01       	movw	r30, r28
 3e8:	31 97       	sbiw	r30, 0x01	; 1
 3ea:	f1 f7       	brne	.-4      	; 0x3e8 <lcd_init+0x54>
 3ec:	90 91 3a 02 	lds	r25, 0x023A	; 0x80023a <__data_end>
 3f0:	9f 7e       	andi	r25, 0xEF	; 239
 3f2:	90 93 3a 02 	sts	0x023A, r25	; 0x80023a <__data_end>
 3f6:	60 91 3a 02 	lds	r22, 0x023A	; 0x80023a <__data_end>
 3fa:	87 e0       	ldi	r24, 0x07	; 7
 3fc:	37 d0       	rcall	.+110    	; 0x46c <pcf8574_setoutput>
 3fe:	d1 de       	rcall	.-606    	; 0x1a2 <toggle_e>
 400:	21 97       	sbiw	r28, 0x01	; 1
 402:	f1 f7       	brne	.-4      	; 0x400 <__FUSE_REGION_LENGTH__>
 404:	88 e2       	ldi	r24, 0x28	; 40
 406:	71 df       	rcall	.-286    	; 0x2ea <lcd_command>
 408:	88 e0       	ldi	r24, 0x08	; 8
 40a:	6f df       	rcall	.-290    	; 0x2ea <lcd_command>
 40c:	7e df       	rcall	.-260    	; 0x30a <lcd_clrscr>
 40e:	86 e0       	ldi	r24, 0x06	; 6
 410:	6c df       	rcall	.-296    	; 0x2ea <lcd_command>
 412:	81 2f       	mov	r24, r17
 414:	6a df       	rcall	.-300    	; 0x2ea <lcd_command>
 416:	df 91       	pop	r29
 418:	cf 91       	pop	r28
 41a:	1f 91       	pop	r17
 41c:	08 95       	ret

0000041e <pcf8574_init>:
 41e:	76 d0       	rcall	.+236    	; 0x50c <i2c_init>
 420:	85 e3       	ldi	r24, 0x35	; 53
 422:	8a 95       	dec	r24
 424:	f1 f7       	brne	.-4      	; 0x422 <pcf8574_init+0x4>
 426:	00 00       	nop
 428:	80 e0       	ldi	r24, 0x00	; 0
 42a:	90 e0       	ldi	r25, 0x00	; 0
 42c:	fc 01       	movw	r30, r24
 42e:	e5 5c       	subi	r30, 0xC5	; 197
 430:	fd 4f       	sbci	r31, 0xFD	; 253
 432:	10 82       	st	Z, r1
 434:	01 96       	adiw	r24, 0x01	; 1
 436:	88 30       	cpi	r24, 0x08	; 8
 438:	91 05       	cpc	r25, r1
 43a:	c1 f7       	brne	.-16     	; 0x42c <pcf8574_init+0xe>
 43c:	08 95       	ret

0000043e <pcf8574_getoutputpin>:
 43e:	88 30       	cpi	r24, 0x08	; 8
 440:	88 f4       	brcc	.+34     	; 0x464 <pcf8574_getoutputpin+0x26>
 442:	68 30       	cpi	r22, 0x08	; 8
 444:	88 f4       	brcc	.+34     	; 0x468 <pcf8574_getoutputpin+0x2a>
 446:	e8 2f       	mov	r30, r24
 448:	f0 e0       	ldi	r31, 0x00	; 0
 44a:	e5 5c       	subi	r30, 0xC5	; 197
 44c:	fd 4f       	sbci	r31, 0xFD	; 253
 44e:	80 81       	ld	r24, Z
 450:	08 2e       	mov	r0, r24
 452:	00 0c       	add	r0, r0
 454:	99 0b       	sbc	r25, r25
 456:	02 c0       	rjmp	.+4      	; 0x45c <pcf8574_getoutputpin+0x1e>
 458:	95 95       	asr	r25
 45a:	87 95       	ror	r24
 45c:	6a 95       	dec	r22
 45e:	e2 f7       	brpl	.-8      	; 0x458 <pcf8574_getoutputpin+0x1a>
 460:	81 70       	andi	r24, 0x01	; 1
 462:	08 95       	ret
 464:	8f ef       	ldi	r24, 0xFF	; 255
 466:	08 95       	ret
 468:	8f ef       	ldi	r24, 0xFF	; 255
 46a:	08 95       	ret

0000046c <pcf8574_setoutput>:
 46c:	cf 93       	push	r28
 46e:	88 30       	cpi	r24, 0x08	; 8
 470:	80 f4       	brcc	.+32     	; 0x492 <pcf8574_setoutput+0x26>
 472:	c6 2f       	mov	r28, r22
 474:	98 2f       	mov	r25, r24
 476:	e8 2f       	mov	r30, r24
 478:	f0 e0       	ldi	r31, 0x00	; 0
 47a:	e5 5c       	subi	r30, 0xC5	; 197
 47c:	fd 4f       	sbci	r31, 0xFD	; 253
 47e:	60 83       	st	Z, r22
 480:	80 e2       	ldi	r24, 0x20	; 32
 482:	89 0f       	add	r24, r25
 484:	88 0f       	add	r24, r24
 486:	48 d0       	rcall	.+144    	; 0x518 <i2c_start>
 488:	8c 2f       	mov	r24, r28
 48a:	76 d0       	rcall	.+236    	; 0x578 <i2c_write>
 48c:	6c d0       	rcall	.+216    	; 0x566 <i2c_stop>
 48e:	80 e0       	ldi	r24, 0x00	; 0
 490:	01 c0       	rjmp	.+2      	; 0x494 <pcf8574_setoutput+0x28>
 492:	8f ef       	ldi	r24, 0xFF	; 255
 494:	cf 91       	pop	r28
 496:	08 95       	ret

00000498 <pcf8574_setoutputpin>:
 498:	cf 93       	push	r28
 49a:	df 93       	push	r29
 49c:	88 30       	cpi	r24, 0x08	; 8
 49e:	50 f5       	brcc	.+84     	; 0x4f4 <pcf8574_setoutputpin+0x5c>
 4a0:	68 30       	cpi	r22, 0x08	; 8
 4a2:	50 f5       	brcc	.+84     	; 0x4f8 <pcf8574_setoutputpin+0x60>
 4a4:	28 2f       	mov	r18, r24
 4a6:	30 e0       	ldi	r19, 0x00	; 0
 4a8:	f9 01       	movw	r30, r18
 4aa:	e5 5c       	subi	r30, 0xC5	; 197
 4ac:	fd 4f       	sbci	r31, 0xFD	; 253
 4ae:	90 81       	ld	r25, Z
 4b0:	44 23       	and	r20, r20
 4b2:	49 f0       	breq	.+18     	; 0x4c6 <pcf8574_setoutputpin+0x2e>
 4b4:	c1 e0       	ldi	r28, 0x01	; 1
 4b6:	d0 e0       	ldi	r29, 0x00	; 0
 4b8:	02 c0       	rjmp	.+4      	; 0x4be <pcf8574_setoutputpin+0x26>
 4ba:	cc 0f       	add	r28, r28
 4bc:	dd 1f       	adc	r29, r29
 4be:	6a 95       	dec	r22
 4c0:	e2 f7       	brpl	.-8      	; 0x4ba <pcf8574_setoutputpin+0x22>
 4c2:	c9 2b       	or	r28, r25
 4c4:	09 c0       	rjmp	.+18     	; 0x4d8 <pcf8574_setoutputpin+0x40>
 4c6:	c1 e0       	ldi	r28, 0x01	; 1
 4c8:	d0 e0       	ldi	r29, 0x00	; 0
 4ca:	02 c0       	rjmp	.+4      	; 0x4d0 <pcf8574_setoutputpin+0x38>
 4cc:	cc 0f       	add	r28, r28
 4ce:	dd 1f       	adc	r29, r29
 4d0:	6a 95       	dec	r22
 4d2:	e2 f7       	brpl	.-8      	; 0x4cc <pcf8574_setoutputpin+0x34>
 4d4:	c0 95       	com	r28
 4d6:	c9 23       	and	r28, r25
 4d8:	98 2f       	mov	r25, r24
 4da:	f9 01       	movw	r30, r18
 4dc:	e5 5c       	subi	r30, 0xC5	; 197
 4de:	fd 4f       	sbci	r31, 0xFD	; 253
 4e0:	c0 83       	st	Z, r28
 4e2:	80 e2       	ldi	r24, 0x20	; 32
 4e4:	89 0f       	add	r24, r25
 4e6:	88 0f       	add	r24, r24
 4e8:	17 d0       	rcall	.+46     	; 0x518 <i2c_start>
 4ea:	8c 2f       	mov	r24, r28
 4ec:	45 d0       	rcall	.+138    	; 0x578 <i2c_write>
 4ee:	3b d0       	rcall	.+118    	; 0x566 <i2c_stop>
 4f0:	80 e0       	ldi	r24, 0x00	; 0
 4f2:	03 c0       	rjmp	.+6      	; 0x4fa <pcf8574_setoutputpin+0x62>
 4f4:	8f ef       	ldi	r24, 0xFF	; 255
 4f6:	01 c0       	rjmp	.+2      	; 0x4fa <pcf8574_setoutputpin+0x62>
 4f8:	8f ef       	ldi	r24, 0xFF	; 255
 4fa:	df 91       	pop	r29
 4fc:	cf 91       	pop	r28
 4fe:	08 95       	ret

00000500 <pcf8574_setoutputpinhigh>:
 500:	41 e0       	ldi	r20, 0x01	; 1
 502:	ca cf       	rjmp	.-108    	; 0x498 <pcf8574_setoutputpin>
 504:	08 95       	ret

00000506 <pcf8574_setoutputpinlow>:
 506:	40 e0       	ldi	r20, 0x00	; 0
 508:	c7 cf       	rjmp	.-114    	; 0x498 <pcf8574_setoutputpin>
 50a:	08 95       	ret

0000050c <i2c_init>:
 50c:	10 92 b9 00 	sts	0x00B9, r1	; 0x8000b9 <__TEXT_REGION_LENGTH__+0x7000b9>
 510:	82 e1       	ldi	r24, 0x12	; 18
 512:	80 93 b8 00 	sts	0x00B8, r24	; 0x8000b8 <__TEXT_REGION_LENGTH__+0x7000b8>
 516:	08 95       	ret

00000518 <i2c_start>:
 518:	94 ea       	ldi	r25, 0xA4	; 164
 51a:	90 93 bc 00 	sts	0x00BC, r25	; 0x8000bc <__TEXT_REGION_LENGTH__+0x7000bc>
 51e:	ec eb       	ldi	r30, 0xBC	; 188
 520:	f0 e0       	ldi	r31, 0x00	; 0
 522:	90 81       	ld	r25, Z
 524:	99 23       	and	r25, r25
 526:	ec f7       	brge	.-6      	; 0x522 <i2c_start+0xa>
 528:	90 91 b9 00 	lds	r25, 0x00B9	; 0x8000b9 <__TEXT_REGION_LENGTH__+0x7000b9>
 52c:	98 7f       	andi	r25, 0xF8	; 248
 52e:	98 30       	cpi	r25, 0x08	; 8
 530:	11 f0       	breq	.+4      	; 0x536 <i2c_start+0x1e>
 532:	90 31       	cpi	r25, 0x10	; 16
 534:	a1 f4       	brne	.+40     	; 0x55e <i2c_start+0x46>
 536:	80 93 bb 00 	sts	0x00BB, r24	; 0x8000bb <__TEXT_REGION_LENGTH__+0x7000bb>
 53a:	84 e8       	ldi	r24, 0x84	; 132
 53c:	80 93 bc 00 	sts	0x00BC, r24	; 0x8000bc <__TEXT_REGION_LENGTH__+0x7000bc>
 540:	ec eb       	ldi	r30, 0xBC	; 188
 542:	f0 e0       	ldi	r31, 0x00	; 0
 544:	80 81       	ld	r24, Z
 546:	88 23       	and	r24, r24
 548:	ec f7       	brge	.-6      	; 0x544 <i2c_start+0x2c>
 54a:	90 91 b9 00 	lds	r25, 0x00B9	; 0x8000b9 <__TEXT_REGION_LENGTH__+0x7000b9>
 54e:	98 7f       	andi	r25, 0xF8	; 248
 550:	98 31       	cpi	r25, 0x18	; 24
 552:	39 f0       	breq	.+14     	; 0x562 <i2c_start+0x4a>
 554:	81 e0       	ldi	r24, 0x01	; 1
 556:	90 34       	cpi	r25, 0x40	; 64
 558:	29 f4       	brne	.+10     	; 0x564 <i2c_start+0x4c>
 55a:	80 e0       	ldi	r24, 0x00	; 0
 55c:	08 95       	ret
 55e:	81 e0       	ldi	r24, 0x01	; 1
 560:	08 95       	ret
 562:	80 e0       	ldi	r24, 0x00	; 0
 564:	08 95       	ret

00000566 <i2c_stop>:
 566:	84 e9       	ldi	r24, 0x94	; 148
 568:	80 93 bc 00 	sts	0x00BC, r24	; 0x8000bc <__TEXT_REGION_LENGTH__+0x7000bc>
 56c:	ec eb       	ldi	r30, 0xBC	; 188
 56e:	f0 e0       	ldi	r31, 0x00	; 0
 570:	80 81       	ld	r24, Z
 572:	84 fd       	sbrc	r24, 4
 574:	fd cf       	rjmp	.-6      	; 0x570 <i2c_stop+0xa>
 576:	08 95       	ret

00000578 <i2c_write>:
 578:	80 93 bb 00 	sts	0x00BB, r24	; 0x8000bb <__TEXT_REGION_LENGTH__+0x7000bb>
 57c:	84 e8       	ldi	r24, 0x84	; 132
 57e:	80 93 bc 00 	sts	0x00BC, r24	; 0x8000bc <__TEXT_REGION_LENGTH__+0x7000bc>
 582:	ec eb       	ldi	r30, 0xBC	; 188
 584:	f0 e0       	ldi	r31, 0x00	; 0
 586:	80 81       	ld	r24, Z
 588:	88 23       	and	r24, r24
 58a:	ec f7       	brge	.-6      	; 0x586 <i2c_write+0xe>
 58c:	90 91 b9 00 	lds	r25, 0x00B9	; 0x8000b9 <__TEXT_REGION_LENGTH__+0x7000b9>
 590:	98 7f       	andi	r25, 0xF8	; 248
 592:	81 e0       	ldi	r24, 0x01	; 1
 594:	98 32       	cpi	r25, 0x28	; 40
 596:	09 f4       	brne	.+2      	; 0x59a <i2c_write+0x22>
 598:	80 e0       	ldi	r24, 0x00	; 0
 59a:	08 95       	ret

0000059c <USART0_SETUP_9600_BAUD_ASSUME_1MHz_CLOCK>:
 59c:	82 e0       	ldi	r24, 0x02	; 2
 59e:	80 93 c0 00 	sts	0x00C0, r24	; 0x8000c0 <__TEXT_REGION_LENGTH__+0x7000c0>
 5a2:	88 e9       	ldi	r24, 0x98	; 152
 5a4:	80 93 c1 00 	sts	0x00C1, r24	; 0x8000c1 <__TEXT_REGION_LENGTH__+0x7000c1>
 5a8:	87 e0       	ldi	r24, 0x07	; 7
 5aa:	80 93 c2 00 	sts	0x00C2, r24	; 0x8000c2 <__TEXT_REGION_LENGTH__+0x7000c2>
 5ae:	10 92 c5 00 	sts	0x00C5, r1	; 0x8000c5 <__TEXT_REGION_LENGTH__+0x7000c5>
 5b2:	8f ec       	ldi	r24, 0xCF	; 207
 5b4:	80 93 c4 00 	sts	0x00C4, r24	; 0x8000c4 <__TEXT_REGION_LENGTH__+0x7000c4>
 5b8:	08 95       	ret

000005ba <USART0_TX_SingleByte>:
 5ba:	e0 ec       	ldi	r30, 0xC0	; 192
 5bc:	f0 e0       	ldi	r31, 0x00	; 0
 5be:	90 81       	ld	r25, Z
 5c0:	95 ff       	sbrs	r25, 5
 5c2:	fd cf       	rjmp	.-6      	; 0x5be <USART0_TX_SingleByte+0x4>
 5c4:	80 93 c6 00 	sts	0x00C6, r24	; 0x8000c6 <__TEXT_REGION_LENGTH__+0x7000c6>
 5c8:	08 95       	ret

000005ca <USART0_TX_String>:
 5ca:	0f 93       	push	r16
 5cc:	1f 93       	push	r17
 5ce:	cf 93       	push	r28
 5d0:	df 93       	push	r29
 5d2:	fc 01       	movw	r30, r24
 5d4:	01 90       	ld	r0, Z+
 5d6:	00 20       	and	r0, r0
 5d8:	e9 f7       	brne	.-6      	; 0x5d4 <USART0_TX_String+0xa>
 5da:	31 97       	sbiw	r30, 0x01	; 1
 5dc:	e8 1b       	sub	r30, r24
 5de:	f9 0b       	sbc	r31, r25
 5e0:	71 f0       	breq	.+28     	; 0x5fe <USART0_TX_String+0x34>
 5e2:	4a f0       	brmi	.+18     	; 0x5f6 <USART0_TX_String+0x2c>
 5e4:	ec 01       	movw	r28, r24
 5e6:	8c 01       	movw	r16, r24
 5e8:	0e 0f       	add	r16, r30
 5ea:	1f 1f       	adc	r17, r31
 5ec:	89 91       	ld	r24, Y+
 5ee:	e5 df       	rcall	.-54     	; 0x5ba <USART0_TX_SingleByte>
 5f0:	c0 17       	cp	r28, r16
 5f2:	d1 07       	cpc	r29, r17
 5f4:	d9 f7       	brne	.-10     	; 0x5ec <USART0_TX_String+0x22>
 5f6:	8d e0       	ldi	r24, 0x0D	; 13
 5f8:	e0 df       	rcall	.-64     	; 0x5ba <USART0_TX_SingleByte>
 5fa:	8a e0       	ldi	r24, 0x0A	; 10
 5fc:	de df       	rcall	.-68     	; 0x5ba <USART0_TX_SingleByte>
 5fe:	df 91       	pop	r29
 600:	cf 91       	pop	r28
 602:	1f 91       	pop	r17
 604:	0f 91       	pop	r16
 606:	08 95       	ret

00000608 <__vector_25>:
 608:	1f 92       	push	r1
 60a:	0f 92       	push	r0
 60c:	0f b6       	in	r0, 0x3f	; 63
 60e:	0f 92       	push	r0
 610:	11 24       	eor	r1, r1
 612:	0f 90       	pop	r0
 614:	0f be       	out	0x3f, r0	; 63
 616:	0f 90       	pop	r0
 618:	1f 90       	pop	r1
 61a:	18 95       	reti

0000061c <main>:
#include "driver/uart.h"
#include "driver/pcf8574.h"

int main(void)
{
	USART0_SETUP_9600_BAUD_ASSUME_1MHz_CLOCK();
 61c:	bf df       	rcall	.-130    	; 0x59c <USART0_SETUP_9600_BAUD_ASSUME_1MHz_CLOCK>
	USART0_TX_String("program start!!!\n");
 61e:	80 e0       	ldi	r24, 0x00	; 0
 620:	92 e0       	ldi	r25, 0x02	; 2
 622:	d3 df       	rcall	.-90     	; 0x5ca <USART0_TX_String>

	//init lcd
	lcd_init(LCD_DISP_ON);
 624:	8c e0       	ldi	r24, 0x0C	; 12
 626:	b6 de       	rcall	.-660    	; 0x394 <lcd_init>
    USART0_TX_String("LCD_DISP_ON_BLINK!!!\n");
 628:	82 e1       	ldi	r24, 0x12	; 18
 62a:	92 e0       	ldi	r25, 0x02	; 2
 62c:	ce df       	rcall	.-100    	; 0x5ca <USART0_TX_String>
	//lcd go home
	lcd_home();
 62e:	82 de       	rcall	.-764    	; 0x334 <lcd_home>

	uint8_t led = 0;
	while(1) {
		lcd_led(led); //set led
 630:	80 e0       	ldi	r24, 0x00	; 0
 632:	6e de       	rcall	.-804    	; 0x310 <lcd_led>
		led = !led; //invert led for next loop
		//test loop
		int i = 0;
		int line = 0;
		lcd_gotoxy(0, 0);
 634:	60 e0       	ldi	r22, 0x00	; 0
 636:	80 e0       	ldi	r24, 0x00	; 0
 638:	60 de       	rcall	.-832    	; 0x2fa <lcd_gotoxy>
		lcd_puts("love you");
 63a:	88 e2       	ldi	r24, 0x28	; 40
 63c:	92 e0       	ldi	r25, 0x02	; 2
 63e:	9b de       	rcall	.-714    	; 0x376 <lcd_puts>
		lcd_gotoxy(0,1);
 640:	61 e0       	ldi	r22, 0x01	; 1
 642:	80 e0       	ldi	r24, 0x00	; 0
 644:	5a de       	rcall	.-844    	; 0x2fa <lcd_gotoxy>
		lcd_puts("Ingvil! ");
 646:	81 e3       	ldi	r24, 0x31	; 49
 648:	92 e0       	ldi	r25, 0x02	; 2
 64a:	95 de       	rcall	.-726    	; 0x376 <lcd_puts>
		while(1);
 64c:	ff cf       	rjmp	.-2      	; 0x64c <main+0x30>

0000064e <_exit>:
 64e:	f8 94       	cli

00000650 <__stop_program>:
 650:	ff cf       	rjmp	.-2      	; 0x650 <__stop_program>
